target datalayout = "e-m:e-p270:32:32-p271:32:32-p272:64:64-i64:64-i128:128-f80:128-n8:16:32:64-S128"
target triple = "x86_64-pc-linux-gnu"

%struct.ec_group_st = type { ptr, ptr, ptr, ptr, i32, i32, i32, i32, ptr, i64, ptr, [6 x i32], ptr, ptr, i32, ptr, ptr, ptr, ptr, i32, %union.anon, ptr, ptr }
%union.anon = type { ptr }

; Function Attrs: nounwind uwtable
define i32 @ossl_ec_GFp_simple_group_copy(ptr noundef %0, ptr noundef %1) #0 {
  %3 = alloca i32, align 4
  %4 = alloca ptr, align 8
  %5 = alloca ptr, align 8
  store ptr %0, ptr %4, align 8, !tbaa !3
  store ptr %1, ptr %5, align 8, !tbaa !3
  %6 = load ptr, ptr %4, align 8, !tbaa !3
  %7 = getelementptr inbounds nuw %struct.ec_group_st, ptr %6, i32 0, i32 10
  %8 = load ptr, ptr %7, align 8, !tbaa !8
  %9 = load ptr, ptr %5, align 8, !tbaa !3
  %10 = getelementptr inbounds nuw %struct.ec_group_st, ptr %9, i32 0, i32 10
  %11 = load ptr, ptr %10, align 8, !tbaa !8
  %12 = call ptr @BN_copy(ptr noundef %8, ptr noundef %11)
  %13 = icmp ne ptr %12, null
  br i1 %13, label %15, label %14

14:                                               ; preds = %2
  store i32 0, ptr %3, align 4
  br label %41

15:                                               ; preds = %2
  %16 = load ptr, ptr %4, align 8, !tbaa !3
  %17 = getelementptr inbounds nuw %struct.ec_group_st, ptr %16, i32 0, i32 12
  %18 = load ptr, ptr %17, align 8, !tbaa !18
  %19 = load ptr, ptr %5, align 8, !tbaa !3
  %20 = getelementptr inbounds nuw %struct.ec_group_st, ptr %19, i32 0, i32 12
  %21 = load ptr, ptr %20, align 8, !tbaa !18
  %22 = call ptr @BN_copy(ptr noundef %18, ptr noundef %21)
  %23 = icmp ne ptr %22, null
  br i1 %23, label %25, label %24

24:                                               ; preds = %15
  store i32 0, ptr %3, align 4
  br label %41

25:                                               ; preds = %15
  %26 = load ptr, ptr %4, align 8, !tbaa !3
  %27 = getelementptr inbounds nuw %struct.ec_group_st, ptr %26, i32 0, i32 13
  %28 = load ptr, ptr %27, align 8, !tbaa !19
  %29 = load ptr, ptr %5, align 8, !tbaa !3
  %30 = getelementptr inbounds nuw %struct.ec_group_st, ptr %29, i32 0, i32 13
  %31 = load ptr, ptr %30, align 8, !tbaa !19
  %32 = call ptr @BN_copy(ptr noundef %28, ptr noundef %31)
  %33 = icmp ne ptr %32, null
  br i1 %33, label %35, label %34

34:                                               ; preds = %25
  store i32 0, ptr %3, align 4
  br label %41

35:                                               ; preds = %25
  %36 = load ptr, ptr %5, align 8, !tbaa !3
  %37 = getelementptr inbounds nuw %struct.ec_group_st, ptr %36, i32 0, i32 14
  %38 = load i32, ptr %37, align 8, !tbaa !20
  %39 = load ptr, ptr %4, align 8, !tbaa !3
  %40 = getelementptr inbounds nuw %struct.ec_group_st, ptr %39, i32 0, i32 14
  store i32 %38, ptr %40, align 8, !tbaa !20
  store i32 1, ptr %3, align 4
  br label %41

41:                                               ; preds = %35, %34, %24, %14
  %42 = load i32, ptr %3, align 4
  ret i32 %42
}