; Function Attrs: nounwind uwtable
define range(i32 0, 2) i32 @ossl_ec_GFp_simple_group_copy(ptr noundef captures(none) %0, ptr noundef readonly captures(none) %1) #1 {
  %3 = getelementptr inbounds nuw i8, ptr %0, i64 64
  %4 = load ptr, ptr %3, align 8, !tbaa !3
  %5 = getelementptr inbounds nuw i8, ptr %1, i64 64
  %6 = load ptr, ptr %5, align 8, !tbaa !3
  %7 = tail call ptr @BN_copy(ptr noundef %4, ptr noundef %6) #4
  %.not = icmp eq ptr %7, null
  br i1 %.not, label %24, label %8

8:                                                ; preds = %2
  %9 = getelementptr inbounds nuw i8, ptr %0, i64 96
  %10 = load ptr, ptr %9, align 8, !tbaa !16
  %11 = getelementptr inbounds nuw i8, ptr %1, i64 96
  %12 = load ptr, ptr %11, align 8, !tbaa !16
  %13 = tail call ptr @BN_copy(ptr noundef %10, ptr noundef %12) #4
  %.not8 = icmp eq ptr %13, null
  br i1 %.not8, label %24, label %14

14:                                               ; preds = %8
  %15 = getelementptr inbounds nuw i8, ptr %0, i64 104
  %16 = load ptr, ptr %15, align 8, !tbaa !17
  %17 = getelementptr inbounds nuw i8, ptr %1, i64 104
  %18 = load ptr, ptr %17, align 8, !tbaa !17
  %19 = tail call ptr @BN_copy(ptr noundef %16, ptr noundef %18) #4
  %.not9 = icmp eq ptr %19, null
  br i1 %.not9, label %24, label %20

20:                                               ; preds = %14
  %21 = getelementptr inbounds nuw i8, ptr %1, i64 112
  %22 = load i32, ptr %21, align 8, !tbaa !18
  %23 = getelementptr inbounds nuw i8, ptr %0, i64 112
  store i32 %22, ptr %23, align 8, !tbaa !18
  br label %24

24:                                               ; preds = %14, %8, %2, %20
  %.0 = phi i32 [ 1, %20 ], [ 0, %2 ], [ 0, %8 ], [ 0, %14 ]
  ret i32 %.0
}